; Function Attrs: nounwind uwtable
define ptr @l_Lean_Elab_processHeader(ptr noundef %0, ptr noundef %1, ptr noundef %2, ptr noundef %3, i32 noundef %4, ptr noundef %5, i8 noundef zeroext %6, ptr noundef %7, ptr noundef %8) local_unnamed_addr #0 {
  %10 = tail call ptr @l_Lean_Syntax_getPos_x3f(ptr noundef %0, i8 noundef zeroext 0) #5
  %11 = ptrtoint ptr %10 to i64
  %12 = and i64 %11, 1
  %.not.i8.i = icmp eq i64 %12, 0
  br i1 %.not.i8.i, label %16, label %13

13:                                               ; preds = %9
  %14 = lshr i64 %11, 1
  %15 = trunc i64 %14 to i32
  br label %lean_obj_tag.exit.i

16:                                               ; preds = %9
  %17 = getelementptr i8, ptr %10, i64 4
  %.val.i.i = load i32, ptr %17, align 4
  %18 = lshr i32 %.val.i.i, 24
  br label %lean_obj_tag.exit.i

lean_obj_tag.exit.i:                              ; preds = %16, %13
  %.0.i.i = phi i32 [ %15, %13 ], [ %18, %16 ]
  %19 = icmp eq i32 %.0.i.i, 0
  br i1 %19, label %l_Lean_Elab_HeaderSyntax_startPos.exit, label %20

20:                                               ; preds = %lean_obj_tag.exit.i
  %21 = getelementptr inbounds nuw i8, ptr %10, i64 8
  %22 = load ptr, ptr %21, align 8, !tbaa !4
  %23 = ptrtoint ptr %22 to i64
  %24 = and i64 %23, 1
  %.not.i21 = icmp eq i64 %24, 0
  br i1 %.not.i21, label %25, label %lean_inc.exit.i

25:                                               ; preds = %20
  %.val.i9.i = load i32, ptr %22, align 4, !tbaa !8
  %26 = icmp sgt i32 %.val.i9.i, 0
  br i1 %26, label %27, label %29, !prof !11

27:                                               ; preds = %25
  %28 = add nuw i32 %.val.i9.i, 1
  store i32 %28, ptr %22, align 4, !tbaa !8
  br label %lean_inc.exit.i

29:                                               ; preds = %25
  %.not.i10.i = icmp eq i32 %.val.i9.i, 0
  br i1 %.not.i10.i, label %lean_inc.exit.i, label %30

30:                                               ; preds = %29
  tail call void @lean_inc_ref_cold(ptr noundef nonnull %22) #5
  br label %lean_inc.exit.i

lean_inc.exit.i:                                  ; preds = %30, %29, %27, %20
  br i1 %.not.i8.i, label %31, label %l_Lean_Elab_HeaderSyntax_startPos.exit

31:                                               ; preds = %lean_inc.exit.i
  %32 = load i32, ptr %10, align 4, !tbaa !8
  %33 = icmp sgt i32 %32, 1
  br i1 %33, label %34, label %36, !prof !11

34:                                               ; preds = %31
  %35 = add nsw i32 %32, -1
  store i32 %35, ptr %10, align 4, !tbaa !8
  br label %l_Lean_Elab_HeaderSyntax_startPos.exit

36:                                               ; preds = %31
  %.not.i.i = icmp eq i32 %32, 0
  br i1 %.not.i.i, label %l_Lean_Elab_HeaderSyntax_startPos.exit, label %37

37:                                               ; preds = %36
  tail call void @lean_dec_ref_cold(ptr noundef nonnull %10) #5
  br label %l_Lean_Elab_HeaderSyntax_startPos.exit

l_Lean_Elab_HeaderSyntax_startPos.exit:           ; preds = %lean_obj_tag.exit.i, %lean_inc.exit.i, %34, %36, %37
  %.0.i = phi ptr [ inttoptr (i64 1 to ptr), %lean_obj_tag.exit.i ], [ %22, %37 ], [ %22, %36 ], [ %22, %34 ], [ %22, %lean_inc.exit.i ]
  %38 = ptrtoint ptr %0 to i64
  %39 = and i64 %38, 1
  %.not = icmp eq i64 %39, 0
  br i1 %.not, label %40, label %lean_inc.exit

40:                                               ; preds = %l_Lean_Elab_HeaderSyntax_startPos.exit
  %.val.i = load i32, ptr %0, align 4, !tbaa !8
  %41 = icmp sgt i32 %.val.i, 0
  br i1 %41, label %42, label %44, !prof !11

42:                                               ; preds = %40
  %43 = add nuw i32 %.val.i, 1
  store i32 %43, ptr %0, align 4, !tbaa !8
  br label %lean_inc.exit

44:                                               ; preds = %40
  %.not.i22 = icmp eq i32 %.val.i, 0
  br i1 %.not.i22, label %lean_inc.exit, label %45

45:                                               ; preds = %44
  tail call void @lean_inc_ref_cold(ptr noundef nonnull %0) #5
  br label %lean_inc.exit

lean_inc.exit:                                    ; preds = %45, %44, %42, %l_Lean_Elab_HeaderSyntax_startPos.exit
  %46 = tail call ptr @l_Lean_Elab_HeaderSyntax_imports(ptr noundef %0)
  %47 = tail call ptr @l_Lean_Syntax_getArg(ptr noundef %0, ptr noundef nonnull inttoptr (i64 1 to ptr)) #5
  %48 = tail call zeroext i8 @l_Lean_Syntax_isNone(ptr noundef %47) #5
  %49 = ptrtoint ptr %47 to i64
  %50 = and i64 %49, 1
  %.not.i23 = icmp eq i64 %50, 0
  br i1 %.not.i23, label %51, label %l_Lean_Elab_HeaderSyntax_isModule.exit

51:                                               ; preds = %lean_inc.exit
  %52 = load i32, ptr %47, align 4, !tbaa !8
  %53 = icmp sgt i32 %52, 1
  br i1 %53, label %54, label %56, !prof !11

54:                                               ; preds = %51
  %55 = add nsw i32 %52, -1
  store i32 %55, ptr %47, align 4, !tbaa !8
  br label %l_Lean_Elab_HeaderSyntax_isModule.exit

56:                                               ; preds = %51
  %.not.i.i24 = icmp eq i32 %52, 0
  br i1 %.not.i.i24, label %l_Lean_Elab_HeaderSyntax_isModule.exit, label %57

57:                                               ; preds = %56
  tail call void @lean_dec_ref_cold(ptr noundef nonnull %47) #5
  br label %l_Lean_Elab_HeaderSyntax_isModule.exit

l_Lean_Elab_HeaderSyntax_isModule.exit:           ; preds = %lean_inc.exit, %54, %56, %57
  %58 = icmp eq i8 %48, 0
  %..i = zext i1 %58 to i8
  br i1 %.not, label %59, label %lean_dec.exit18

59:                                               ; preds = %l_Lean_Elab_HeaderSyntax_isModule.exit
  %60 = load i32, ptr %0, align 4, !tbaa !8
  %61 = icmp sgt i32 %60, 1
  br i1 %61, label %62, label %64, !prof !11

62:                                               ; preds = %59
  %63 = add nsw i32 %60, -1
  store i32 %63, ptr %0, align 4, !tbaa !8
  br label %lean_dec.exit18

64:                                               ; preds = %59
  %.not.i = icmp eq i32 %60, 0
  br i1 %.not.i, label %lean_dec.exit18, label %65

65:                                               ; preds = %64
  tail call void @lean_dec_ref_cold(ptr noundef nonnull %0) #5
  br label %lean_dec.exit18

lean_dec.exit18:                                  ; preds = %65, %64, %62, %l_Lean_Elab_HeaderSyntax_isModule.exit
  %66 = tail call ptr @l_Lean_Elab_processHeaderCore(ptr noundef %.0.i, ptr noundef %46, i8 noundef zeroext %..i, ptr noundef %1, ptr noundef %2, ptr noundef %3, i32 noundef %4, ptr noundef %5, i8 noundef zeroext %6, ptr noundef %7, ptr noundef nonnull inttoptr (i64 1 to ptr), ptr noundef %8)
  %67 = ptrtoint ptr %.0.i to i64
  %68 = and i64 %67, 1
  %.not25 = icmp eq i64 %68, 0
  br i1 %.not25, label %69, label %lean_dec.exit

69:                                               ; preds = %lean_dec.exit18
  %70 = load i32, ptr %.0.i, align 4, !tbaa !8
  %71 = icmp sgt i32 %70, 1
  br i1 %71, label %72, label %74, !prof !11

72:                                               ; preds = %69
  %73 = add nsw i32 %70, -1
  store i32 %73, ptr %.0.i, align 4, !tbaa !8
  br label %lean_dec.exit

74:                                               ; preds = %69
  %.not.i19 = icmp eq i32 %70, 0
  br i1 %.not.i19, label %lean_dec.exit, label %75

75:                                               ; preds = %74
  tail call void @lean_dec_ref_cold(ptr noundef nonnull %.0.i) #5
  br label %lean_dec.exit

lean_dec.exit:                                    ; preds = %75, %74, %72, %lean_dec.exit18
  ret ptr %66
}